; Function Attrs: mustprogress nounwind uwtable
define void @_ZN8nanobind6detail23property_install_staticEP7_objectPKcS2_S2_(ptr noundef %0, ptr noundef %1, ptr noundef %2, ptr noundef %3) local_unnamed_addr #9 personality ptr @__gxx_personality_v0 {
  %5 = tail call noundef ptr @_ZN8nanobind6detail21nb_static_property_tpEv() #27
  invoke fastcc void @_ZN8nanobind6detailL21property_install_implEP11_typeobjectP7_objectPKcS4_S4_(ptr noundef %5, ptr noundef %0, ptr noundef %1, ptr noundef %2, ptr noundef %3)
          to label %6 unwind label %7

6:                                                ; preds = %4
  ret void

7:                                                ; preds = %4
  %8 = landingpad { ptr, i32 }
          catch ptr null
  %9 = extractvalue { ptr, i32 } %8, 0
  tail call void @__clang_call_terminate(ptr %9) #29
  unreachable
}